#include <math.h>
#include <stdio.h>
#include <stdlib.h>
#include <string.h>
#include <iostream>
using namespace std;

int main()
{
	char c[100]={"\0"};
	char a[100][10]={"\0"};
	int i=0,j=1,k=0;
	cin.getline(c,100,'\n');
	for (i=0;c[i]!='\0';i++)
	{
		if (c[i]!=' ')
		{
			k++;
			a[j][k]=c[i];			
		}
		else
		{
			j++;
			k=0;
		}
	}

	for (i=j;i>1;i--)
	{
		for (k=1;a[i][k]!='\0';k++)
		cout<<a[i][k];
		cout<<' ';
	}
	while (a[1][i]!='\0')
	{cout<<a[1][i];
	i++;}

	return 0;

}
